; Function Attrs: nounwind uwtable
define range(i32 0, 2) i32 @Cba_NtkCheckComboLoop(ptr noundef captures(none) %0) local_unnamed_addr #1 {
  %2 = getelementptr inbounds nuw i8, ptr %0, i64 168
  %3 = getelementptr inbounds nuw i8, ptr %0, i64 88
  %.val.i = load i32, ptr %3, align 8
  %4 = load i32, ptr %2, align 8
  %.not.i.i.i = icmp slt i32 %4, %.val.i
  br i1 %.not.i.i.i, label %5, label %Vec_IntGrow.exit.i.i

5:                                                ; preds = %1
  %6 = getelementptr inbounds nuw i8, ptr %0, i64 176
  %7 = load ptr, ptr %6, align 8
  %.not9.i.i.i = icmp eq ptr %7, null
  %8 = sext i32 %.val.i to i64
  %9 = shl nsw i64 %8, 2
  br i1 %.not9.i.i.i, label %12, label %10

10:                                               ; preds = %5
  %11 = tail call ptr @realloc(ptr noundef nonnull %7, i64 noundef %9) #28
  br label %14

12:                                               ; preds = %5
  %13 = tail call noalias ptr @malloc(i64 noundef %9) #25
  br label %14

14:                                               ; preds = %12, %10
  %15 = phi ptr [ %11, %10 ], [ %13, %12 ]
  store ptr %15, ptr %6, align 8
  store i32 %.val.i, ptr %2, align 8
  br label %Vec_IntGrow.exit.i.i

Vec_IntGrow.exit.i.i:                             ; preds = %14, %1
  %16 = icmp sgt i32 %.val.i, 0
  br i1 %16, label %.lr.ph.i.i, label %Cba_NtkCleanObjCopies.exit

.lr.ph.i.i:                                       ; preds = %Vec_IntGrow.exit.i.i
  %17 = getelementptr inbounds nuw i8, ptr %0, i64 176
  %wide.trip.count.i.i = zext nneg i32 %.val.i to i64
  br label %18

18:                                               ; preds = %18, %.lr.ph.i.i
  %indvars.iv.i.i = phi i64 [ 0, %.lr.ph.i.i ], [ %indvars.iv.next.i.i, %18 ]
  %19 = load ptr, ptr %17, align 8
  %20 = getelementptr inbounds nuw i32, ptr %19, i64 %indvars.iv.i.i
  store i32 -1, ptr %20, align 4
  %indvars.iv.next.i.i = add nuw nsw i64 %indvars.iv.i.i, 1
  %exitcond.not.i.i = icmp eq i64 %indvars.iv.next.i.i, %wide.trip.count.i.i
  br i1 %exitcond.not.i.i, label %Cba_NtkCleanObjCopies.exit, label %18, !llvm.loop !43

Cba_NtkCleanObjCopies.exit:                       ; preds = %18, %Vec_IntGrow.exit.i.i
  %21 = getelementptr inbounds nuw i8, ptr %0, i64 172
  store i32 %.val.i, ptr %21, align 4
  %22 = getelementptr i8, ptr %0, i64 92
  %.val14 = load i32, ptr %22, align 4
  %23 = icmp sgt i32 %.val14, 1
  br i1 %23, label %.lr.ph, label %.loopexit

.lr.ph:                                           ; preds = %Cba_NtkCleanObjCopies.exit
  %24 = getelementptr i8, ptr %0, i64 96
  %25 = getelementptr i8, ptr %0, i64 188
  %26 = getelementptr inbounds nuw i8, ptr %0, i64 184
  %27 = getelementptr i8, ptr %0, i64 192
  br label %28

28:                                               ; preds = %.lr.ph, %56
  %indvars.iv = phi i64 [ 1, %.lr.ph ], [ %indvars.iv.next, %56 ]
  %.val13 = load ptr, ptr %24, align 8
  %29 = getelementptr inbounds nuw i8, ptr %.val13, i64 %indvars.iv
  %30 = load i8, ptr %29, align 1
  %31 = add i8 %30, -90
  %32 = icmp ult i8 %31, -87
  br i1 %32, label %56, label %33

33:                                               ; preds = %28
  %34 = icmp eq i8 %30, 3
  br i1 %34, label %Cba_ObjNtkId.exit.i.i, label %Cba_ObjIsSeq.exit

Cba_ObjNtkId.exit.i.i:                            ; preds = %33
  %.val5.i.i.i = load i32, ptr %25, align 4
  %35 = icmp sgt i32 %.val5.i.i.i, 0
  tail call void @llvm.assume(i1 %35)
  %36 = trunc i64 %indvars.iv to i32
  %37 = add i32 %36, 1
  tail call fastcc void @Vec_IntFillExtra(ptr noundef nonnull %26, i32 noundef %37, i32 noundef 0)
  %.val.i.i.i.i.i = load ptr, ptr %27, align 8
  %38 = getelementptr inbounds nuw i32, ptr %.val.i.i.i.i.i, i64 %indvars.iv
  %39 = load i32, ptr %38, align 4
  %.val.i.i = load ptr, ptr %0, align 8
  %40 = icmp sgt i32 %39, 0
  tail call void @llvm.assume(i1 %40)
  %41 = getelementptr i8, ptr %.val.i.i, i64 1564
  %.val.i.i.i2.i.i = load i32, ptr %41, align 4
  %.not.i.i.i.i = icmp slt i32 %39, %.val.i.i.i2.i.i
  tail call void @llvm.assume(i1 %.not.i.i.i.i)
  %42 = getelementptr i8, ptr %.val.i.i, i64 1568
  %.val.i.i.i.i = load ptr, ptr %42, align 8
  %43 = zext nneg i32 %39 to i64
  %44 = getelementptr inbounds nuw ptr, ptr %.val.i.i.i.i, i64 %43
  %45 = load ptr, ptr %44, align 8
  %46 = getelementptr inbounds nuw i8, ptr %45, i64 20
  %47 = load i8, ptr %46, align 4
  %48 = and i8 %47, 4
  %49 = icmp eq i8 %48, 0
  br i1 %49, label %52, label %56

Cba_ObjIsSeq.exit:                                ; preds = %33
  %50 = add nsw i8 %30, -88
  %51 = icmp ult i8 %50, -12
  br i1 %51, label %52, label %56

52:                                               ; preds = %Cba_ObjNtkId.exit.i.i, %Cba_ObjIsSeq.exit
  %53 = trunc nuw nsw i64 %indvars.iv to i32
  %54 = tail call i32 @Cba_NtkCheckComboLoop_rec(ptr noundef nonnull %0, i32 noundef %53)
  %.not12 = icmp eq i32 %54, 0
  br i1 %.not12, label %55, label %56

55:                                               ; preds = %52
  %puts = tail call i32 @puts(ptr nonnull dereferenceable(1) @str.4)
  br label %.loopexit

56:                                               ; preds = %Cba_ObjNtkId.exit.i.i, %28, %52, %Cba_ObjIsSeq.exit
  %indvars.iv.next = add nuw nsw i64 %indvars.iv, 1
  %.val = load i32, ptr %22, align 4
  %57 = sext i32 %.val to i64
  %58 = icmp slt i64 %indvars.iv.next, %57
  br i1 %58, label %28, label %.loopexit, !llvm.loop !44

.loopexit:                                        ; preds = %56, %Cba_NtkCleanObjCopies.exit, %55
  %.010 = phi i32 [ 0, %55 ], [ 1, %Cba_NtkCleanObjCopies.exit ], [ 1, %56 ]
  ret i32 %.010
}